target datalayout = "e-m:e-p270:32:32-p271:32:32-p272:64:64-i64:64-i128:128-f80:128-n8:16:32:64-S128"
target triple = "x86_64-pc-linux-gnu"

%struct.dfa = type { i32, i32, i32, i32, i32, ptr, ptr, ptr, ptr, ptr, ptr, ptr, ptr, ptr, ptr, i32, i16, i16, i8, i8 }
%struct.sset = type { ptr, i32, i32, %struct.arcp, ptr, ptr, ptr }
%struct.arcp = type { ptr, i16 }
%struct.cnfa = type { i32, i32, i32, i32, i32, [2 x i16], [2 x i16], ptr, ptr, ptr, i32, i32 }

; Function Attrs: nounwind uwtable
define internal i32 @hash(ptr noundef %0, i32 noundef %1) #0 {
  %3 = alloca ptr, align 8
  %4 = alloca i32, align 4
  %5 = alloca i32, align 4
  %6 = alloca i32, align 4
  store ptr %0, ptr %3, align 8
  store i32 %1, ptr %4, align 4
  call void @llvm.lifetime.start.p0(i64 4, ptr %5) #7
  call void @llvm.lifetime.start.p0(i64 4, ptr %6) #7
  store i32 0, ptr %6, align 4
  store i32 0, ptr %5, align 4
  br label %7

7:                                                ; preds = %19, %2
  %8 = load i32, ptr %5, align 4
  %9 = load i32, ptr %4, align 4
  %10 = icmp slt i32 %8, %9
  br i1 %10, label %11, label %22

11:                                               ; preds = %7
  %12 = load ptr, ptr %3, align 8
  %13 = load i32, ptr %5, align 4
  %14 = sext i32 %13 to i64
  %15 = getelementptr inbounds i32, ptr %12, i64 %14
  %16 = load i32, ptr %15, align 4
  %17 = load i32, ptr %6, align 4
  %18 = xor i32 %17, %16
  store i32 %18, ptr %6, align 4
  br label %19

19:                                               ; preds = %11
  %20 = load i32, ptr %5, align 4
  %21 = add i32 %20, 1
  store i32 %21, ptr %5, align 4
  br label %7, !llvm.loop !32

22:                                               ; preds = %7
  %23 = load i32, ptr %6, align 4
  call void @llvm.lifetime.end.p0(i64 4, ptr %6) #7
  call void @llvm.lifetime.end.p0(i64 4, ptr %5) #7
  ret i32 %23
}

; Function Attrs: nounwind uwtable
define internal ptr @initialize(ptr noundef %0, ptr noundef %1, ptr noundef %2) #0 {
  %4 = alloca ptr, align 8
  %5 = alloca ptr, align 8
  %6 = alloca ptr, align 8
  %7 = alloca ptr, align 8
  %8 = alloca ptr, align 8
  %9 = alloca i32, align 4
  %10 = alloca i32, align 4
  store ptr %0, ptr %5, align 8
  store ptr %1, ptr %6, align 8
  store ptr %2, ptr %7, align 8
  call void @llvm.lifetime.start.p0(i64 8, ptr %8) #7
  call void @llvm.lifetime.start.p0(i64 4, ptr %9) #7
  %11 = load ptr, ptr %6, align 8
  %12 = getelementptr inbounds nuw %struct.dfa, ptr %11, i32 0, i32 1
  %13 = load i32, ptr %12, align 4
  %14 = icmp sgt i32 %13, 0
  br i1 %14, label %15, label %29

15:                                               ; preds = %3
  %16 = load ptr, ptr %6, align 8
  %17 = getelementptr inbounds nuw %struct.dfa, ptr %16, i32 0, i32 5
  %18 = load ptr, ptr %17, align 8
  %19 = getelementptr inbounds %struct.sset, ptr %18, i64 0
  %20 = getelementptr inbounds nuw %struct.sset, ptr %19, i32 0, i32 2
  %21 = load i32, ptr %20, align 4
  %22 = and i32 %21, 1
  %23 = icmp ne i32 %22, 0
  br i1 %23, label %24, label %29

24:                                               ; preds = %15
  %25 = load ptr, ptr %6, align 8
  %26 = getelementptr inbounds nuw %struct.dfa, ptr %25, i32 0, i32 5
  %27 = load ptr, ptr %26, align 8
  %28 = getelementptr inbounds %struct.sset, ptr %27, i64 0
  store ptr %28, ptr %8, align 8
  br label %101

29:                                               ; preds = %15, %3
  %30 = load ptr, ptr %5, align 8
  %31 = load ptr, ptr %6, align 8
  %32 = load ptr, ptr %7, align 8
  %33 = load ptr, ptr %7, align 8
  %34 = call ptr @getvacant(ptr noundef %30, ptr noundef %31, ptr noundef %32, ptr noundef %33)
  store ptr %34, ptr %8, align 8
  %35 = load ptr, ptr %8, align 8
  %36 = icmp eq ptr %35, null
  br i1 %36, label %37, label %38

37:                                               ; preds = %29
  store ptr null, ptr %4, align 8
  store i32 1, ptr %10, align 4
  br label %128

38:                                               ; preds = %29
  store i32 0, ptr %9, align 4
  br label %39

39:                                               ; preds = %52, %38
  %40 = load i32, ptr %9, align 4
  %41 = load ptr, ptr %6, align 8
  %42 = getelementptr inbounds nuw %struct.dfa, ptr %41, i32 0, i32 4
  %43 = load i32, ptr %42, align 8
  %44 = icmp slt i32 %40, %43
  br i1 %44, label %45, label %55

45:                                               ; preds = %39
  %46 = load ptr, ptr %8, align 8
  %47 = getelementptr inbounds nuw %struct.sset, ptr %46, i32 0, i32 0
  %48 = load ptr, ptr %47, align 8
  %49 = load i32, ptr %9, align 4
  %50 = sext i32 %49 to i64
  %51 = getelementptr inbounds i32, ptr %48, i64 %50
  store i32 0, ptr %51, align 4
  br label %52

52:                                               ; preds = %45
  %53 = load i32, ptr %9, align 4
  %54 = add i32 %53, 1
  store i32 %54, ptr %9, align 4
  br label %39, !llvm.loop !18

55:                                               ; preds = %39
  %56 = load ptr, ptr %6, align 8
  %57 = getelementptr inbounds nuw %struct.dfa, ptr %56, i32 0, i32 10
  %58 = load ptr, ptr %57, align 8
  %59 = getelementptr inbounds nuw %struct.cnfa, ptr %58, i32 0, i32 3
  %60 = load i32, ptr %59, align 4
  %61 = sext i32 %60 to i64
  %62 = urem i64 %61, 32
  %63 = trunc i64 %62 to i32
  %64 = shl i32 1, %63
  %65 = load ptr, ptr %8, align 8
  %66 = getelementptr inbounds nuw %struct.sset, ptr %65, i32 0, i32 0
  %67 = load ptr, ptr %66, align 8
  %68 = load ptr, ptr %6, align 8
  %69 = getelementptr inbounds nuw %struct.dfa, ptr %68, i32 0, i32 10
  %70 = load ptr, ptr %69, align 8
  %71 = getelementptr inbounds nuw %struct.cnfa, ptr %70, i32 0, i32 3
  %72 = load i32, ptr %71, align 4
  %73 = sext i32 %72 to i64
  %74 = udiv i64 %73, 32
  %75 = getelementptr inbounds nuw i32, ptr %67, i64 %74
  %76 = load i32, ptr %75, align 4
  %77 = or i32 %76, %64
  store i32 %77, ptr %75, align 4
  %78 = load ptr, ptr %6, align 8
  %79 = getelementptr inbounds nuw %struct.dfa, ptr %78, i32 0, i32 4
  %80 = load i32, ptr %79, align 8
  %81 = icmp eq i32 %80, 1
  br i1 %81, label %82, label %87

82:                                               ; preds = %55
  %83 = load ptr, ptr %8, align 8
  %84 = getelementptr inbounds nuw %struct.sset, ptr %83, i32 0, i32 0
  %85 = load ptr, ptr %84, align 8
  %86 = load i32, ptr %85, align 4
  br label %95

87:                                               ; preds = %55
  %88 = load ptr, ptr %8, align 8
  %89 = getelementptr inbounds nuw %struct.sset, ptr %88, i32 0, i32 0
  %90 = load ptr, ptr %89, align 8
  %91 = load ptr, ptr %6, align 8
  %92 = getelementptr inbounds nuw %struct.dfa, ptr %91, i32 0, i32 4
  %93 = load i32, ptr %92, align 8
  %94 = call i32 @hash(ptr noundef %90, i32 noundef %93)
  br label %95

95:                                               ; preds = %87, %82
  %96 = phi i32 [ %86, %82 ], [ %94, %87 ]
  %97 = load ptr, ptr %8, align 8
  %98 = getelementptr inbounds nuw %struct.sset, ptr %97, i32 0, i32 1
  store i32 %96, ptr %98, align 8
  %99 = load ptr, ptr %8, align 8
  %100 = getelementptr inbounds nuw %struct.sset, ptr %99, i32 0, i32 2
  store i32 13, ptr %100, align 4
  br label %101

101:                                              ; preds = %95, %24
  store i32 0, ptr %9, align 4
  br label %102

102:                                              ; preds = %116, %101
  %103 = load i32, ptr %9, align 4
  %104 = load ptr, ptr %6, align 8
  %105 = getelementptr inbounds nuw %struct.dfa, ptr %104, i32 0, i32 1
  %106 = load i32, ptr %105, align 4
  %107 = icmp slt i32 %103, %106
  br i1 %107, label %108, label %119

108:                                              ; preds = %102
  %109 = load ptr, ptr %6, align 8
  %110 = getelementptr inbounds nuw %struct.dfa, ptr %109, i32 0, i32 5
  %111 = load ptr, ptr %110, align 8
  %112 = load i32, ptr %9, align 4
  %113 = sext i32 %112 to i64
  %114 = getelementptr inbounds %struct.sset, ptr %111, i64 %113
  %115 = getelementptr inbounds nuw %struct.sset, ptr %114, i32 0, i32 4
  store ptr null, ptr %115, align 8
  br label %116

116:                                              ; preds = %108
  %117 = load i32, ptr %9, align 4
  %118 = add i32 %117, 1
  store i32 %118, ptr %9, align 4
  br label %102, !llvm.loop !19

119:                                              ; preds = %102
  %120 = load ptr, ptr %7, align 8
  %121 = load ptr, ptr %8, align 8
  %122 = getelementptr inbounds nuw %struct.sset, ptr %121, i32 0, i32 4
  store ptr %120, ptr %122, align 8
  %123 = load ptr, ptr %6, align 8
  %124 = getelementptr inbounds nuw %struct.dfa, ptr %123, i32 0, i32 12
  store ptr null, ptr %124, align 8
  %125 = load ptr, ptr %6, align 8
  %126 = getelementptr inbounds nuw %struct.dfa, ptr %125, i32 0, i32 13
  store ptr null, ptr %126, align 8
  %127 = load ptr, ptr %8, align 8
  store ptr %127, ptr %4, align 8
  store i32 1, ptr %10, align 4
  br label %128

128:                                              ; preds = %119, %37
  call void @llvm.lifetime.end.p0(i64 4, ptr %9) #7
  call void @llvm.lifetime.end.p0(i64 8, ptr %8) #7
  %129 = load ptr, ptr %4, align 8
  ret ptr %129
}