; Function Attrs: nofree norecurse nosync nounwind memory(readwrite, inaccessiblemem: none) uwtable
define internal fastcc ptr @initialize(ptr noundef nonnull captures(none) %0, ptr noundef captures(none) %1, ptr noundef %2) unnamed_addr #4 {
  %4 = getelementptr inbounds nuw i8, ptr %1, i64 4
  %5 = load i32, ptr %4, align 4
  %6 = icmp sgt i32 %5, 0
  br i1 %6, label %7, label %13

7:                                                ; preds = %3
  %8 = getelementptr inbounds nuw i8, ptr %1, i64 24
  %9 = load ptr, ptr %8, align 8
  %10 = getelementptr inbounds nuw i8, ptr %9, i64 12
  %11 = load i32, ptr %10, align 4
  %12 = and i32 %11, 1
  %.not = icmp eq i32 %12, 0
  br i1 %.not, label %13, label %.lr.ph40

13:                                               ; preds = %7, %3
  %14 = tail call fastcc ptr @getvacant(ptr noundef %0, ptr noundef nonnull %1, ptr noundef %2, ptr noundef %2)
  %15 = icmp eq ptr %14, null
  br i1 %15, label %59, label %.preheader

.preheader:                                       ; preds = %13
  %16 = getelementptr inbounds nuw i8, ptr %1, i64 16
  %17 = load i32, ptr %16, align 8
  %18 = icmp sgt i32 %17, 0
  br i1 %18, label %.lr.ph, label %._crit_edge

.lr.ph:                                           ; preds = %.preheader, %.lr.ph
  %indvars.iv = phi i64 [ %indvars.iv.next, %.lr.ph ], [ 0, %.preheader ]
  %19 = load ptr, ptr %14, align 8
  %20 = getelementptr inbounds nuw i32, ptr %19, i64 %indvars.iv
  store i32 0, ptr %20, align 4
  %indvars.iv.next = add nuw nsw i64 %indvars.iv, 1
  %21 = load i32, ptr %16, align 8
  %22 = sext i32 %21 to i64
  %23 = icmp slt i64 %indvars.iv.next, %22
  br i1 %23, label %.lr.ph, label %._crit_edge, !llvm.loop !26

._crit_edge:                                      ; preds = %.lr.ph, %.preheader
  %24 = getelementptr inbounds nuw i8, ptr %1, i64 64
  %25 = load ptr, ptr %24, align 8
  %26 = getelementptr inbounds nuw i8, ptr %25, i64 12
  %27 = load i32, ptr %26, align 4
  %28 = sext i32 %27 to i64
  %29 = and i32 %27, 31
  %30 = shl nuw i32 1, %29
  %31 = load ptr, ptr %14, align 8
  %32 = lshr i64 %28, 5
  %33 = getelementptr inbounds nuw i32, ptr %31, i64 %32
  %34 = load i32, ptr %33, align 4
  %35 = or i32 %34, %30
  store i32 %35, ptr %33, align 4
  %36 = load i32, ptr %16, align 8
  %37 = icmp eq i32 %36, 1
  %38 = load ptr, ptr %14, align 8
  br i1 %37, label %39, label %41

39:                                               ; preds = %._crit_edge
  %40 = load i32, ptr %38, align 4
  br label %.loopexit

41:                                               ; preds = %._crit_edge
  %42 = icmp sgt i32 %36, 0
  br i1 %42, label %.lr.ph.preheader.i, label %.loopexit

.lr.ph.preheader.i:                               ; preds = %41
  %wide.trip.count.i = zext nneg i32 %36 to i64
  br label %.lr.ph.i

.lr.ph.i:                                         ; preds = %.lr.ph.i, %.lr.ph.preheader.i
  %indvars.iv.i = phi i64 [ 0, %.lr.ph.preheader.i ], [ %indvars.iv.next.i, %.lr.ph.i ]
  %.08.i = phi i32 [ 0, %.lr.ph.preheader.i ], [ %45, %.lr.ph.i ]
  %43 = getelementptr inbounds nuw i32, ptr %38, i64 %indvars.iv.i
  %44 = load i32, ptr %43, align 4
  %45 = xor i32 %44, %.08.i
  %indvars.iv.next.i = add nuw nsw i64 %indvars.iv.i, 1
  %exitcond.not.i = icmp eq i64 %indvars.iv.next.i, %wide.trip.count.i
  br i1 %exitcond.not.i, label %.loopexit, label %.lr.ph.i, !llvm.loop !27

.loopexit:                                        ; preds = %.lr.ph.i, %39, %41
  %46 = phi i32 [ %40, %39 ], [ 0, %41 ], [ %45, %.lr.ph.i ]
  %47 = getelementptr inbounds nuw i8, ptr %14, i64 8
  store i32 %46, ptr %47, align 8
  %48 = getelementptr inbounds nuw i8, ptr %14, i64 12
  store i32 13, ptr %48, align 4
  %.pre = load i32, ptr %4, align 4
  %49 = icmp sgt i32 %.pre, 0
  br i1 %49, label %.lr.ph40, label %._crit_edge41

.lr.ph40:                                         ; preds = %7, %.loopexit
  %.03248 = phi ptr [ %14, %.loopexit ], [ %9, %7 ]
  %50 = getelementptr inbounds nuw i8, ptr %1, i64 24
  br label %51

51:                                               ; preds = %.lr.ph40, %51
  %indvars.iv43 = phi i64 [ 0, %.lr.ph40 ], [ %indvars.iv.next44, %51 ]
  %52 = load ptr, ptr %50, align 8
  %53 = getelementptr inbounds nuw %struct.sset, ptr %52, i64 %indvars.iv43, i32 4
  store ptr null, ptr %53, align 8
  %indvars.iv.next44 = add nuw nsw i64 %indvars.iv43, 1
  %54 = load i32, ptr %4, align 4
  %55 = sext i32 %54 to i64
  %56 = icmp slt i64 %indvars.iv.next44, %55
  br i1 %56, label %51, label %._crit_edge41, !llvm.loop !28

._crit_edge41:                                    ; preds = %51, %.loopexit
  %.03247 = phi ptr [ %14, %.loopexit ], [ %.03248, %51 ]
  %57 = getelementptr inbounds nuw i8, ptr %.03247, i64 32
  store ptr %2, ptr %57, align 8
  %58 = getelementptr inbounds nuw i8, ptr %1, i64 80
  tail call void @llvm.memset.p0.i64(ptr noundef nonnull align 8 dereferenceable(16) %58, i8 0, i64 16, i1 false)
  br label %59

59:                                               ; preds = %13, %._crit_edge41
  %.033 = phi ptr [ %.03247, %._crit_edge41 ], [ null, %13 ]
  ret ptr %.033
}